target datalayout = "e-m:e-p270:32:32-p271:32:32-p272:64:64-i64:64-i128:128-f80:128-n8:16:32:64-S128"
target triple = "x86_64-pc-linux-gnu"

%struct._zval_struct = type { %union._zend_value, %union.anon.3, %union.anon.6 }
%union._zend_value = type { i64 }
%union.anon.3 = type { i32 }
%union.anon.6 = type { i32 }
%struct.php_unserialize_data = type { ptr, ptr, ptr, ptr, ptr, i64, i64, %struct.var_entries }
%struct.var_entries = type { i64, ptr, [1018 x ptr] }
%struct.var_dtor_entries = type { i64, ptr, [255 x %struct._zval_struct] }
%struct.anon.4 = type { i8, i8, %union.anon.5 }
%union.anon.5 = type { i16 }

; Function Attrs: nounwind uwtable
define ptr @var_tmp_var(ptr noundef %0) #0 {
  %2 = alloca ptr, align 8
  %3 = alloca ptr, align 8
  %4 = alloca i64, align 8
  %5 = alloca ptr, align 8
  %6 = alloca i64, align 8
  %7 = alloca ptr, align 8
  store ptr %0, ptr %7, align 8
  %8 = load ptr, ptr %7, align 8
  store ptr %8, ptr %3, align 8
  store i64 1, ptr %4, align 8
  %9 = load ptr, ptr %3, align 8
  %10 = icmp ne ptr %9, null
  br i1 %10, label %11, label %18

11:                                               ; preds = %1
  %12 = load ptr, ptr %3, align 8
  %13 = load ptr, ptr %12, align 8
  %14 = icmp ne ptr %13, null
  br i1 %14, label %15, label %18

15:                                               ; preds = %11
  %16 = load i64, ptr %4, align 8
  %17 = icmp slt i64 %16, 1
  br i1 %17, label %18, label %19

18:                                               ; preds = %15, %11, %1
  store ptr null, ptr %2, align 8
  br label %90

19:                                               ; preds = %15
  %20 = load ptr, ptr %3, align 8
  %21 = load ptr, ptr %20, align 8
  %22 = getelementptr inbounds %struct.php_unserialize_data, ptr %21, i32 0, i32 2
  %23 = load ptr, ptr %22, align 8
  store ptr %23, ptr %5, align 8
  %24 = load ptr, ptr %5, align 8
  %25 = icmp ne ptr %24, null
  br i1 %25, label %26, label %32

26:                                               ; preds = %19
  %27 = load ptr, ptr %5, align 8
  %28 = load i64, ptr %27, align 8
  %29 = load i64, ptr %4, align 8
  %30 = add nsw i64 %28, %29
  %31 = icmp sgt i64 %30, 255
  br i1 %31, label %32, label %59

32:                                               ; preds = %26, %19
  %33 = call noalias ptr @_emalloc_large(i64 noundef 4096) #10
  store ptr %33, ptr %5, align 8
  %34 = load ptr, ptr %5, align 8
  store i64 0, ptr %34, align 8
  %35 = load ptr, ptr %5, align 8
  %36 = getelementptr inbounds %struct.var_dtor_entries, ptr %35, i32 0, i32 1
  store ptr null, ptr %36, align 8
  %37 = load ptr, ptr %3, align 8
  %38 = load ptr, ptr %37, align 8
  %39 = getelementptr inbounds %struct.php_unserialize_data, ptr %38, i32 0, i32 1
  %40 = load ptr, ptr %39, align 8
  %41 = icmp ne ptr %40, null
  br i1 %41, label %47, label %42

42:                                               ; preds = %32
  %43 = load ptr, ptr %5, align 8
  %44 = load ptr, ptr %3, align 8
  %45 = load ptr, ptr %44, align 8
  %46 = getelementptr inbounds %struct.php_unserialize_data, ptr %45, i32 0, i32 1
  store ptr %43, ptr %46, align 8
  br label %54

47:                                               ; preds = %32
  %48 = load ptr, ptr %5, align 8
  %49 = load ptr, ptr %3, align 8
  %50 = load ptr, ptr %49, align 8
  %51 = getelementptr inbounds %struct.php_unserialize_data, ptr %50, i32 0, i32 2
  %52 = load ptr, ptr %51, align 8
  %53 = getelementptr inbounds %struct.var_dtor_entries, ptr %52, i32 0, i32 1
  store ptr %48, ptr %53, align 8
  br label %54

54:                                               ; preds = %47, %42
  %55 = load ptr, ptr %5, align 8
  %56 = load ptr, ptr %3, align 8
  %57 = load ptr, ptr %56, align 8
  %58 = getelementptr inbounds %struct.php_unserialize_data, ptr %57, i32 0, i32 2
  store ptr %55, ptr %58, align 8
  br label %59

59:                                               ; preds = %54, %26
  %60 = load ptr, ptr %5, align 8
  %61 = load i64, ptr %60, align 8
  store i64 %61, ptr %6, align 8
  br label %62

62:                                               ; preds = %69, %59
  %63 = load ptr, ptr %5, align 8
  %64 = load i64, ptr %63, align 8
  %65 = load i64, ptr %6, align 8
  %66 = load i64, ptr %4, align 8
  %67 = add nsw i64 %65, %66
  %68 = icmp slt i64 %64, %67
  br i1 %68, label %69, label %85

69:                                               ; preds = %62
  %70 = load ptr, ptr %5, align 8
  %71 = getelementptr inbounds %struct.var_dtor_entries, ptr %70, i32 0, i32 2
  %72 = load ptr, ptr %5, align 8
  %73 = load i64, ptr %72, align 8
  %74 = getelementptr inbounds [255 x %struct._zval_struct], ptr %71, i64 0, i64 %73
  %75 = getelementptr inbounds %struct._zval_struct, ptr %74, i32 0, i32 1
  store i32 0, ptr %75, align 8
  %76 = load ptr, ptr %5, align 8
  %77 = getelementptr inbounds %struct.var_dtor_entries, ptr %76, i32 0, i32 2
  %78 = load ptr, ptr %5, align 8
  %79 = load i64, ptr %78, align 8
  %80 = getelementptr inbounds [255 x %struct._zval_struct], ptr %77, i64 0, i64 %79
  %81 = getelementptr inbounds %struct._zval_struct, ptr %80, i32 0, i32 2
  store i32 0, ptr %81, align 4
  %82 = load ptr, ptr %5, align 8
  %83 = load i64, ptr %82, align 8
  %84 = add nsw i64 %83, 1
  store i64 %84, ptr %82, align 8
  br label %62

85:                                               ; preds = %62
  %86 = load ptr, ptr %5, align 8
  %87 = getelementptr inbounds %struct.var_dtor_entries, ptr %86, i32 0, i32 2
  %88 = load i64, ptr %6, align 8
  %89 = getelementptr inbounds [255 x %struct._zval_struct], ptr %87, i64 0, i64 %88
  store ptr %89, ptr %2, align 8
  br label %90

90:                                               ; preds = %85, %18
  %91 = load ptr, ptr %2, align 8
  ret ptr %91
}

; Function Attrs: nounwind uwtable
define internal void @var_push_dtor_value(ptr noundef %0, ptr noundef %1) #0 {
  %3 = alloca ptr, align 8
  %4 = alloca ptr, align 8
  %5 = alloca ptr, align 8
  %6 = alloca ptr, align 8
  %7 = alloca ptr, align 8
  %8 = alloca ptr, align 8
  %9 = alloca i32, align 4
  store ptr %0, ptr %3, align 8
  store ptr %1, ptr %4, align 8
  %10 = load ptr, ptr %4, align 8
  %11 = getelementptr inbounds %struct._zval_struct, ptr %10, i32 0, i32 1
  %12 = getelementptr inbounds %struct.anon.4, ptr %11, i32 0, i32 1
  %13 = load i8, ptr %12, align 1
  %14 = zext i8 %13 to i32
  %15 = icmp ne i32 %14, 0
  br i1 %15, label %16, label %41

16:                                               ; preds = %2
  %17 = load ptr, ptr %3, align 8
  %18 = call ptr @var_tmp_var(ptr noundef %17)
  store ptr %18, ptr %5, align 8
  %19 = load ptr, ptr %5, align 8
  %20 = icmp ne ptr %19, null
  br i1 %20, label %22, label %21

21:                                               ; preds = %16
  br label %41

22:                                               ; preds = %16
  br label %23

23:                                               ; preds = %22
  %24 = load ptr, ptr %5, align 8
  store ptr %24, ptr %6, align 8
  %25 = load ptr, ptr %4, align 8
  store ptr %25, ptr %7, align 8
  %26 = load ptr, ptr %7, align 8
  %27 = getelementptr inbounds %struct._zval_struct, ptr %26, i32 0, i32 0
  %28 = load ptr, ptr %27, align 8
  store ptr %28, ptr %8, align 8
  %29 = load ptr, ptr %7, align 8
  %30 = getelementptr inbounds %struct._zval_struct, ptr %29, i32 0, i32 1
  %31 = load i32, ptr %30, align 8
  store i32 %31, ptr %9, align 4
  br label %32

32:                                               ; preds = %23
  %33 = load ptr, ptr %8, align 8
  %34 = load ptr, ptr %6, align 8
  %35 = getelementptr inbounds %struct._zval_struct, ptr %34, i32 0, i32 0
  store ptr %33, ptr %35, align 8
  %36 = load i32, ptr %9, align 4
  %37 = load ptr, ptr %6, align 8
  %38 = getelementptr inbounds %struct._zval_struct, ptr %37, i32 0, i32 1
  store i32 %36, ptr %38, align 8
  br label %39

39:                                               ; preds = %32
  br label %40

40:                                               ; preds = %39
  br label %41

41:                                               ; preds = %40, %21, %2
  ret void
}